; Function Attrs: mustprogress nounwind uwtable
define dso_local void @_ZNK4llvm17LLVMTargetMachine22getTargetTransformInfoERKNS_8FunctionE(ptr dead_on_unwind noalias nocapture writable writeonly sret(%"class.llvm::TargetTransformInfo") align 8 %0, ptr noundef nonnull align 8 dereferenceable(1232) %1, ptr noundef nonnull align 8 dereferenceable(136) %2) unnamed_addr #0 align 2 {
  %4 = alloca %"class.llvm::BasicTTIImpl", align 8
  call void @_ZN4llvm12BasicTTIImplC1EPKNS_13TargetMachineERKNS_8FunctionE(ptr noundef nonnull align 8 dereferenceable(32) %4, ptr noundef nonnull %1, ptr noundef nonnull align 8 dereferenceable(136) %2) #17
  %5 = call noalias noundef nonnull dereferenceable(40) ptr @_Znwm(i64 noundef 40) #19
  %6 = getelementptr inbounds i8, ptr %4, i64 8
  %7 = load i64, ptr %6, align 8
  %8 = getelementptr inbounds nuw i8, ptr %4, i64 16
  %9 = getelementptr inbounds i8, ptr %5, i64 24
  call void @llvm.memcpy.p0.p0.i64(ptr noundef nonnull align 8 dereferenceable(16) %9, ptr noundef nonnull align 8 dereferenceable(16) %8, i64 16, i1 false)
  store ptr getelementptr inbounds inrange(-16, 1472) (i8, ptr @_ZTVN4llvm19TargetTransformInfo5ModelINS_12BasicTTIImplEEE, i64 16), ptr %5, align 8
  %10 = getelementptr inbounds nuw i8, ptr %5, i64 8
  %11 = getelementptr inbounds i8, ptr %5, i64 16
  store i64 %7, ptr %11, align 8
  store ptr getelementptr inbounds inrange(-16, 80) (i8, ptr @_ZTVN4llvm12BasicTTIImplE, i64 16), ptr %10, align 8
  store ptr %5, ptr %0, align 8
  ret void
}